target datalayout = "e-m:e-p270:32:32-p271:32:32-p272:64:64-i64:64-i128:128-f80:128-n8:16:32:64-S128"
target triple = "x86_64-pc-linux-gnu"

%struct.H5O_fill_t = type { %struct.H5O_shared_t, i32, ptr, i64, ptr, i32, i32, i8 }
%struct.H5O_shared_t = type { i32, ptr, i32, %union.anon }
%union.anon = type { %struct.H5O_mesg_loc_t }
%struct.H5O_mesg_loc_t = type { i32, i64 }
%struct.H5CX_node_t = type { %struct.H5CX_t, ptr }
%struct.H5CX_t = type { i64, ptr, i64, ptr, i64, ptr, i64, ptr, i64, ptr, i64, ptr, i64, i32, i64, i8, ptr, i8, ptr, i8, i32, i8, [3 x double], i8, i64, i8, i32, i8, %struct.H5Z_cb_t, i8, ptr, i8, %struct.H5T_vlen_alloc_info_t, i8, %struct.H5T_conv_cb_t, i8, i32, i8, i8, i8, i32, i8, i8, i32, i8, i8, i32, i8, i32, i8, i64, i8, i8, i8, i8, i8, ptr, i8, ptr, i8, i32, i8, i32, i8, %struct.H5VL_connector_prop_t, i8, ptr, i8 }
%struct.H5Z_cb_t = type { ptr, ptr }
%struct.H5T_vlen_alloc_info_t = type { ptr, ptr, ptr, ptr }
%struct.H5T_conv_cb_t = type { ptr, ptr }
%struct.H5VL_connector_prop_t = type { ptr, ptr }

@H5P_CLS_DATASET_CREATE_ID_g = external global i64, align 8
@H5P_init_g = external global i8, align 1
@H5_libterm_g = external global i8, align 1
@H5_libinit_g = external global i8, align 1
@.str.1 = private unnamed_addr constant [101 x i8] c"generated/home/dtcxzyw/WorkSpace/Projects/compilers/llvm-opt-benchmark/bench/hdf5/hdf5/src/H5Pdcpl.c\00", align 1
@H5E_FUNC_g = external global i64, align 8
@H5E_CANTINIT_g = external global i64, align 8
@.str.2 = private unnamed_addr constant [30 x i8] c"library initialization failed\00", align 1
@.str.3 = private unnamed_addr constant [32 x i8] c"interface initialization failed\00", align 1
@H5E_CANTSET_g = external global i64, align 8
@.str.4 = private unnamed_addr constant [22 x i8] c"can't set API context\00", align 1
@H5E_ID_g = external global i64, align 8
@H5E_BADID_g = external global i64, align 8
@.str.6 = private unnamed_addr constant [25 x i8] c"can't find object for ID\00", align 1
@H5E_PLIST_g = external global i64, align 8
@H5E_CANTGET_g = external global i64, align 8
@.str.63 = private unnamed_addr constant [11 x i8] c"fill_value\00", align 1
@.str.64 = private unnamed_addr constant [21 x i8] c"can't get fill value\00", align 1
@__func__.H5Pget_alloc_time = private unnamed_addr constant [18 x i8] c"H5Pget_alloc_time\00", align 1

; Function Attrs: nounwind uwtable
define i32 @H5Pget_alloc_time(i64 noundef %0, ptr noundef %1) #0 {
  %3 = alloca i32, align 4
  %4 = alloca i64, align 8
  %5 = alloca ptr, align 8
  %6 = alloca i32, align 4
  %7 = alloca %struct.H5CX_node_t, align 8
  %8 = alloca i8, align 1
  %9 = alloca i8, align 1
  %10 = alloca ptr, align 8
  %11 = alloca %struct.H5O_fill_t, align 8
  %12 = alloca i32, align 4
  store i64 %0, ptr %4, align 8, !tbaa !14
  store ptr %1, ptr %5, align 8, !tbaa !16
  call void @llvm.lifetime.start.p0(i64 4, ptr %6) #11
  store i32 0, ptr %6, align 4, !tbaa !8
  call void @llvm.lifetime.start.p0(i64 480, ptr %7) #11
  call void @llvm.memset.p0.i64(ptr align 8 %7, i8 0, i64 480, i1 false)
  call void @llvm.lifetime.start.p0(i64 1, ptr %8) #11
  store i8 0, ptr %8, align 1, !tbaa !10
  call void @llvm.lifetime.start.p0(i64 1, ptr %9) #11
  store i8 0, ptr %9, align 1, !tbaa !10
  br label %13

13:                                               ; preds = %2
  %14 = load i8, ptr @H5_libinit_g, align 1, !tbaa !10, !range !12, !noundef !13
  %15 = trunc i8 %14 to i1
  br i1 %15, label %20, label %16

16:                                               ; preds = %13
  %17 = load i8, ptr @H5_libterm_g, align 1, !tbaa !10, !range !12, !noundef !13
  %18 = trunc i8 %17 to i1
  %19 = xor i1 %18, true
  br label %20

20:                                               ; preds = %16, %13
  %21 = phi i1 [ false, %13 ], [ %19, %16 ]
  %22 = xor i1 %21, true
  %23 = xor i1 %22, true
  %24 = zext i1 %23 to i32
  %25 = sext i32 %24 to i64
  %26 = call i64 @llvm.expect.i64(i64 %25, i64 0)
  %27 = icmp ne i64 %26, 0
  br i1 %27, label %28, label %57

28:                                               ; preds = %20
  %29 = call i32 @H5_init_library()
  %30 = icmp slt i32 %29, 0
  %31 = xor i1 %30, true
  %32 = xor i1 %31, true
  %33 = zext i1 %32 to i32
  %34 = sext i32 %33 to i64
  %35 = call i64 @llvm.expect.i64(i64 %34, i64 0)
  %36 = icmp ne i64 %35, 0
  br i1 %36, label %37, label %56

37:                                               ; preds = %28
  br label %38

38:                                               ; preds = %37
  br label %39

39:                                               ; preds = %38
  br label %40

40:                                               ; preds = %39
  %41 = load i64, ptr @H5E_FUNC_g, align 8, !tbaa !14
  %42 = load i64, ptr @H5E_CANTINIT_g, align 8, !tbaa !14
  %43 = call i32 (ptr, ptr, i32, i64, i64, ptr, ...) @H5E_printf_stack(ptr noundef @.str.1, ptr noundef @__func__.H5Pget_alloc_time, i32 noundef 3370, i64 noundef %41, i64 noundef %42, ptr noundef @.str.2)
  br label %44

44:                                               ; preds = %40
  br label %45

45:                                               ; preds = %44
  store i8 1, ptr %9, align 1, !tbaa !10
  %46 = load i8, ptr %9, align 1, !tbaa !10, !range !12, !noundef !13
  %47 = trunc i8 %46 to i1
  %48 = zext i1 %47 to i8
  store i8 %48, ptr %9, align 1, !tbaa !10
  br label %49

49:                                               ; preds = %45
  br label %50

50:                                               ; preds = %49
  br label %51

51:                                               ; preds = %50
  store i32 -1, ptr %6, align 4, !tbaa !8
  br label %188

52:                                               ; No predecessors!
  br label %53

53:                                               ; preds = %52
  br label %54

54:                                               ; preds = %53
  br label %55

55:                                               ; preds = %54
  br label %56

56:                                               ; preds = %55, %28
  br label %57

57:                                               ; preds = %56, %20
  %58 = load i8, ptr @H5P_init_g, align 1, !tbaa !10, !range !12, !noundef !13
  %59 = trunc i8 %58 to i1
  br i1 %59, label %64, label %60

60:                                               ; preds = %57
  %61 = load i8, ptr @H5_libterm_g, align 1, !tbaa !10, !range !12, !noundef !13
  %62 = trunc i8 %61 to i1
  %63 = xor i1 %62, true
  br label %64

64:                                               ; preds = %60, %57
  %65 = phi i1 [ false, %57 ], [ %63, %60 ]
  %66 = xor i1 %65, true
  %67 = xor i1 %66, true
  %68 = zext i1 %67 to i32
  %69 = sext i32 %68 to i64
  %70 = call i64 @llvm.expect.i64(i64 %69, i64 0)
  %71 = icmp ne i64 %70, 0
  br i1 %71, label %72, label %95

72:                                               ; preds = %64
  store i8 1, ptr @H5P_init_g, align 1, !tbaa !10
  %73 = call i32 @H5P__init_package()
  %74 = icmp slt i32 %73, 0
  br i1 %74, label %75, label %94

75:                                               ; preds = %72
  store i8 0, ptr @H5P_init_g, align 1, !tbaa !10
  br label %76

76:                                               ; preds = %75
  br label %77

77:                                               ; preds = %76
  br label %78

78:                                               ; preds = %77
  %79 = load i64, ptr @H5E_FUNC_g, align 8, !tbaa !14
  %80 = load i64, ptr @H5E_CANTINIT_g, align 8, !tbaa !14
  %81 = call i32 (ptr, ptr, i32, i64, i64, ptr, ...) @H5E_printf_stack(ptr noundef @.str.1, ptr noundef @__func__.H5Pget_alloc_time, i32 noundef 3370, i64 noundef %79, i64 noundef %80, ptr noundef @.str.3)
  br label %82

82:                                               ; preds = %78
  br label %83

83:                                               ; preds = %82
  store i8 1, ptr %9, align 1, !tbaa !10
  %84 = load i8, ptr %9, align 1, !tbaa !10, !range !12, !noundef !13
  %85 = trunc i8 %84 to i1
  %86 = zext i1 %85 to i8
  store i8 %86, ptr %9, align 1, !tbaa !10
  br label %87

87:                                               ; preds = %83
  br label %88

88:                                               ; preds = %87
  br label %89

89:                                               ; preds = %88
  store i32 -1, ptr %6, align 4, !tbaa !8
  br label %188

90:                                               ; No predecessors!
  br label %91

91:                                               ; preds = %90
  br label %92

92:                                               ; preds = %91
  br label %93

93:                                               ; preds = %92
  br label %94

94:                                               ; preds = %93, %72
  br label %95

95:                                               ; preds = %94, %64
  br label %96

96:                                               ; preds = %95
  br label %97

97:                                               ; preds = %96
  br label %98

98:                                               ; preds = %97
  %99 = call i32 @H5CX_push(ptr noundef %7)
  %100 = icmp slt i32 %99, 0
  %101 = xor i1 %100, true
  %102 = xor i1 %101, true
  %103 = zext i1 %102 to i32
  %104 = sext i32 %103 to i64
  %105 = call i64 @llvm.expect.i64(i64 %104, i64 0)
  %106 = icmp ne i64 %105, 0
  br i1 %106, label %107, label %126

107:                                              ; preds = %98
  br label %108

108:                                              ; preds = %107
  br label %109

109:                                              ; preds = %108
  br label %110

110:                                              ; preds = %109
  %111 = load i64, ptr @H5E_FUNC_g, align 8, !tbaa !14
  %112 = load i64, ptr @H5E_CANTSET_g, align 8, !tbaa !14
  %113 = call i32 (ptr, ptr, i32, i64, i64, ptr, ...) @H5E_printf_stack(ptr noundef @.str.1, ptr noundef @__func__.H5Pget_alloc_time, i32 noundef 3370, i64 noundef %111, i64 noundef %112, ptr noundef @.str.4)
  br label %114

114:                                              ; preds = %110
  br label %115

115:                                              ; preds = %114
  store i8 1, ptr %9, align 1, !tbaa !10
  %116 = load i8, ptr %9, align 1, !tbaa !10, !range !12, !noundef !13
  %117 = trunc i8 %116 to i1
  %118 = zext i1 %117 to i8
  store i8 %118, ptr %9, align 1, !tbaa !10
  br label %119

119:                                              ; preds = %115
  br label %120

120:                                              ; preds = %119
  br label %121

121:                                              ; preds = %120
  store i32 -1, ptr %6, align 4, !tbaa !8
  br label %188

122:                                              ; No predecessors!
  br label %123

123:                                              ; preds = %122
  br label %124

124:                                              ; preds = %123
  br label %125

125:                                              ; preds = %124
  br label %127

126:                                              ; preds = %98
  store i8 1, ptr %8, align 1, !tbaa !10
  br label %127

127:                                              ; preds = %126, %125
  br label %128

128:                                              ; preds = %127
  br label %129

129:                                              ; preds = %128
  %130 = call i32 @H5E_clear_stack()
  %131 = load ptr, ptr %5, align 8, !tbaa !16
  %132 = icmp ne ptr %131, null
  br i1 %132, label %133, label %187

133:                                              ; preds = %129
  call void @llvm.lifetime.start.p0(i64 8, ptr %10) #11
  call void @llvm.lifetime.start.p0(i64 88, ptr %11) #11
  %134 = load i64, ptr %4, align 8, !tbaa !14
  %135 = load i64, ptr @H5P_CLS_DATASET_CREATE_ID_g, align 8, !tbaa !14
  %136 = call ptr @H5P_object_verify(i64 noundef %134, i64 noundef %135, i1 noundef zeroext true)
  store ptr %136, ptr %10, align 8, !tbaa !28
  %137 = icmp eq ptr null, %136
  br i1 %137, label %138, label %157

138:                                              ; preds = %133
  br label %139

139:                                              ; preds = %138
  br label %140

140:                                              ; preds = %139
  br label %141

141:                                              ; preds = %140
  %142 = load i64, ptr @H5E_ID_g, align 8, !tbaa !14
  %143 = load i64, ptr @H5E_BADID_g, align 8, !tbaa !14
  %144 = call i32 (ptr, ptr, i32, i64, i64, ptr, ...) @H5E_printf_stack(ptr noundef @.str.1, ptr noundef @__func__.H5Pget_alloc_time, i32 noundef 3379, i64 noundef %142, i64 noundef %143, ptr noundef @.str.6)
  br label %145

145:                                              ; preds = %141
  br label %146

146:                                              ; preds = %145
  store i8 1, ptr %9, align 1, !tbaa !10
  %147 = load i8, ptr %9, align 1, !tbaa !10, !range !12, !noundef !13
  %148 = trunc i8 %147 to i1
  %149 = zext i1 %148 to i8
  store i8 %149, ptr %9, align 1, !tbaa !10
  br label %150

150:                                              ; preds = %146
  br label %151

151:                                              ; preds = %150
  br label %152

152:                                              ; preds = %151
  store i32 -1, ptr %6, align 4, !tbaa !8
  store i32 12, ptr %12, align 4
  br label %184

153:                                              ; No predecessors!
  br label %154

154:                                              ; preds = %153
  br label %155

155:                                              ; preds = %154
  br label %156

156:                                              ; preds = %155
  br label %157

157:                                              ; preds = %156, %133
  %158 = load ptr, ptr %10, align 8, !tbaa !28
  %159 = call i32 @H5P_peek(ptr noundef %158, ptr noundef @.str.63, ptr noundef %11)
  %160 = icmp slt i32 %159, 0
  br i1 %160, label %161, label %180

161:                                              ; preds = %157
  br label %162

162:                                              ; preds = %161
  br label %163

163:                                              ; preds = %162
  br label %164

164:                                              ; preds = %163
  %165 = load i64, ptr @H5E_PLIST_g, align 8, !tbaa !14
  %166 = load i64, ptr @H5E_CANTGET_g, align 8, !tbaa !14
  %167 = call i32 (ptr, ptr, i32, i64, i64, ptr, ...) @H5E_printf_stack(ptr noundef @.str.1, ptr noundef @__func__.H5Pget_alloc_time, i32 noundef 3383, i64 noundef %165, i64 noundef %166, ptr noundef @.str.64)
  br label %168

168:                                              ; preds = %164
  br label %169

169:                                              ; preds = %168
  store i8 1, ptr %9, align 1, !tbaa !10
  %170 = load i8, ptr %9, align 1, !tbaa !10, !range !12, !noundef !13
  %171 = trunc i8 %170 to i1
  %172 = zext i1 %171 to i8
  store i8 %172, ptr %9, align 1, !tbaa !10
  br label %173

173:                                              ; preds = %169
  br label %174

174:                                              ; preds = %173
  br label %175

175:                                              ; preds = %174
  store i32 -1, ptr %6, align 4, !tbaa !8
  store i32 12, ptr %12, align 4
  br label %184

176:                                              ; No predecessors!
  br label %177

177:                                              ; preds = %176
  br label %178

178:                                              ; preds = %177
  br label %179

179:                                              ; preds = %178
  br label %180

180:                                              ; preds = %179, %157
  %181 = getelementptr inbounds nuw %struct.H5O_fill_t, ptr %11, i32 0, i32 5
  %182 = load i32, ptr %181, align 8, !tbaa !26
  %183 = load ptr, ptr %5, align 8, !tbaa !16
  store i32 %182, ptr %183, align 4, !tbaa !8
  store i32 0, ptr %12, align 4
  br label %184

184:                                              ; preds = %175, %152, %180
  call void @llvm.lifetime.end.p0(i64 88, ptr %11) #11
  call void @llvm.lifetime.end.p0(i64 8, ptr %10) #11
  %185 = load i32, ptr %12, align 4
  switch i32 %185, label %212 [
    i32 0, label %186
    i32 12, label %188
  ]

186:                                              ; preds = %184
  br label %187

187:                                              ; preds = %186, %129
  br label %188

188:                                              ; preds = %187, %184, %121, %89, %51
  %189 = load i8, ptr %8, align 1, !tbaa !10, !range !12, !noundef !13
  %190 = trunc i8 %189 to i1
  %191 = xor i1 %190, true
  %192 = xor i1 %191, true
  %193 = zext i1 %192 to i32
  %194 = sext i32 %193 to i64
  %195 = call i64 @llvm.expect.i64(i64 %194, i64 1)
  %196 = icmp ne i64 %195, 0
  br i1 %196, label %197, label %199

197:                                              ; preds = %188
  %198 = call i32 @H5CX_pop(i1 noundef zeroext true)
  store i8 0, ptr %8, align 1, !tbaa !10
  br label %199

199:                                              ; preds = %197, %188
  %200 = load i8, ptr %9, align 1, !tbaa !10, !range !12, !noundef !13
  %201 = trunc i8 %200 to i1
  %202 = xor i1 %201, true
  %203 = xor i1 %202, true
  %204 = zext i1 %203 to i32
  %205 = sext i32 %204 to i64
  %206 = call i64 @llvm.expect.i64(i64 %205, i64 0)
  %207 = icmp ne i64 %206, 0
  br i1 %207, label %208, label %210

208:                                              ; preds = %199
  %209 = call i32 @H5E_dump_api_stack()
  br label %210

210:                                              ; preds = %208, %199
  %211 = load i32, ptr %6, align 4, !tbaa !8
  store i32 %211, ptr %3, align 4
  store i32 1, ptr %12, align 4
  br label %212

212:                                              ; preds = %210, %184
  call void @llvm.lifetime.end.p0(i64 1, ptr %9) #11
  call void @llvm.lifetime.end.p0(i64 1, ptr %8) #11
  call void @llvm.lifetime.end.p0(i64 480, ptr %7) #11
  call void @llvm.lifetime.end.p0(i64 4, ptr %6) #11
  %213 = load i32, ptr %3, align 4
  ret i32 %213
}